target datalayout = "e-m:e-p270:32:32-p271:32:32-p272:64:64-i64:64-i128:128-f80:128-n8:16:32:64-S128"
target triple = "x86_64-pc-linux-gnu"

%"class.Luau::Allocator" = type { ptr, i64 }
%"struct.Luau::Allocator::Page" = type { ptr, [8192 x i8] }

; Function Attrs: mustprogress nounwind uwtable
define dso_local void @_ZN4Luau9AllocatorD2Ev(ptr noundef nonnull align 8 dereferenceable(16) %0) unnamed_addr #4 align 2 {
  %2 = alloca ptr, align 8
  %3 = alloca ptr, align 8
  %4 = alloca ptr, align 8
  store ptr %0, ptr %2, align 8, !tbaa !8
  %5 = load ptr, ptr %2, align 8
  call void @llvm.lifetime.start.p0(i64 8, ptr %3) #7
  %6 = getelementptr inbounds nuw %"class.Luau::Allocator", ptr %5, i32 0, i32 0
  %7 = load ptr, ptr %6, align 8, !tbaa !11
  store ptr %7, ptr %3, align 8, !tbaa !18
  br label %8

8:                                                ; preds = %11, %1
  %9 = load ptr, ptr %3, align 8, !tbaa !18
  %10 = icmp ne ptr %9, null
  br i1 %10, label %11, label %17

11:                                               ; preds = %8
  call void @llvm.lifetime.start.p0(i64 8, ptr %4) #7
  %12 = load ptr, ptr %3, align 8, !tbaa !18
  %13 = getelementptr inbounds nuw %"struct.Luau::Allocator::Page", ptr %12, i32 0, i32 0
  %14 = load ptr, ptr %13, align 8, !tbaa !16
  store ptr %14, ptr %4, align 8, !tbaa !18
  %15 = load ptr, ptr %3, align 8, !tbaa !18
  call void @_ZdlPv(ptr noundef %15) #7
  %16 = load ptr, ptr %4, align 8, !tbaa !18
  store ptr %16, ptr %3, align 8, !tbaa !18
  call void @llvm.lifetime.end.p0(i64 8, ptr %4) #7
  br label %8, !llvm.loop !19

17:                                               ; preds = %8
  call void @llvm.lifetime.end.p0(i64 8, ptr %3) #7
  ret void
}