; Function Attrs: mustprogress nounwind uwtable
define dso_local void @_ZN4Luau9AllocatorD2Ev(ptr noundef nonnull readonly align 8 captures(none) dereferenceable(16) %0) unnamed_addr #5 align 2 {
  %2 = load ptr, ptr %0, align 8, !tbaa !8
  %.not5 = icmp eq ptr %2, null
  br i1 %.not5, label %._crit_edge, label %.lr.ph

.lr.ph:                                           ; preds = %1, %.lr.ph
  %.06 = phi ptr [ %3, %.lr.ph ], [ %2, %1 ]
  %3 = load ptr, ptr %.06, align 8, !tbaa !14
  tail call void @_ZdlPv(ptr noundef nonnull %.06) #10
  %.not = icmp eq ptr %3, null
  br i1 %.not, label %._crit_edge, label %.lr.ph, !llvm.loop !16

._crit_edge:                                      ; preds = %.lr.ph, %1
  ret void
}